target datalayout = "e-m:e-p270:32:32-p271:32:32-p272:64:64-i64:64-i128:128-f80:128-n8:16:32:64-S128"
target triple = "x86_64-unknown-linux-gnu"

%class.b3Vector3 = type { %union.anon }
%union.anon = type { [4 x float] }
%class.b3GpuRigidBodyPipeline = type { ptr, ptr }
%struct.b3GpuRigidBodyPipelineInternalData = type { ptr, ptr, ptr, ptr, ptr, ptr, ptr, ptr, ptr, ptr, ptr, ptr, ptr, ptr, %class.b3AlignedObjectArray, ptr, ptr, %class.b3AlignedObjectArray.7, %class.b3AlignedObjectArray.11, i32, ptr, %class.b3Vector3, %struct.b3Config }
%class.b3AlignedObjectArray = type <{ %class.b3AlignedAllocator, [3 x i8], i32, i32, [4 x i8], ptr, i8, [7 x i8] }>
%class.b3AlignedAllocator = type { i8 }
%class.b3AlignedObjectArray.7 = type <{ %class.b3AlignedAllocator.8, [3 x i8], i32, i32, [4 x i8], ptr, i8, [7 x i8] }>
%class.b3AlignedAllocator.8 = type { i8 }
%class.b3AlignedObjectArray.11 = type <{ %class.b3AlignedAllocator.12, [3 x i8], i32, i32, [4 x i8], ptr, i8, [7 x i8] }>
%class.b3AlignedAllocator.12 = type { i8 }
%struct.b3Config = type { i32, i32, i32, i32, i32, i32, i32, i32, i32, i32, i32, i32 }

; Function Attrs: mustprogress uwtable
define dso_local noundef ptr @_ZN22b3GpuRigidBodyPipeline13getBodyBufferEv(ptr noundef nonnull align 8 dereferenceable(16) %this) #0 align 2 {
entry:
  %this.addr = alloca ptr, align 8
  store ptr %this, ptr %this.addr, align 8
  %this1 = load ptr, ptr %this.addr, align 8
  %m_data = getelementptr inbounds %class.b3GpuRigidBodyPipeline, ptr %this1, i32 0, i32 1
  %0 = load ptr, ptr %m_data, align 8
  %m_narrowphase = getelementptr inbounds %struct.b3GpuRigidBodyPipelineInternalData, ptr %0, i32 0, i32 20
  %1 = load ptr, ptr %m_narrowphase, align 8
  %call = call noundef ptr @_ZN16b3GpuNarrowPhase12getBodiesGpuEv(ptr noundef nonnull align 8 dereferenceable(56) %1)
  ret ptr %call
}